target datalayout = "e-m:e-p270:32:32-p271:32:32-p272:64:64-i64:64-i128:128-f80:128-n8:16:32:64-S128"
target triple = "x86_64-pc-linux-gnu"

%struct.used_atom = type { i32, ptr, i32, i32, %union.anon }
%union.anon = type { %struct.anon.1 }
%struct.anon.1 = type { i32, %struct.process_trailer_options, ptr, i32 }
%struct.process_trailer_options = type { i32, i32, i32, i32, i32, i32, i32, i32, ptr, ptr, ptr, ptr }

@the_repository = external global ptr, align 8
@.str.24 = private unnamed_addr constant [1 x i8] zeroinitializer, align 1
@git_gettext_enabled = external global i32, align 4
@.str.64 = private unnamed_addr constant [5 x i8] c"HEAD\00", align 1
@.str.82 = private unnamed_addr constant [33 x i8] c"%%(%.*s) does not take arguments\00", align 1

; Function Attrs: inlinehint nounwind uwtable
define internal ptr @_(ptr noundef %0) #1 {
  %2 = alloca ptr, align 8
  %3 = alloca ptr, align 8
  store ptr %0, ptr %3, align 8, !tbaa !13
  %4 = load ptr, ptr %3, align 8, !tbaa !13
  %5 = load i8, ptr %4, align 1, !tbaa !14
  %6 = icmp ne i8 %5, 0
  br i1 %6, label %8, label %7

7:                                                ; preds = %1
  store ptr @.str.24, ptr %2, align 8
  br label %16

8:                                                ; preds = %1
  %9 = load i32, ptr @git_gettext_enabled, align 4, !tbaa !15
  %10 = icmp ne i32 %9, 0
  br i1 %10, label %13, label %11

11:                                               ; preds = %8
  %12 = load ptr, ptr %3, align 8, !tbaa !13
  store ptr %12, ptr %2, align 8
  br label %16

13:                                               ; preds = %8
  %14 = load ptr, ptr %3, align 8, !tbaa !13
  %15 = call ptr @dcgettext(ptr noundef null, ptr noundef %14, i32 noundef 5) #11
  store ptr %15, ptr %2, align 8
  br label %16

16:                                               ; preds = %13, %11, %7
  %17 = load ptr, ptr %2, align 8
  ret ptr %17
}

; Function Attrs: nounwind uwtable
define internal i32 @err_no_arg(ptr noundef %0, ptr noundef %1) #0 {
  %3 = alloca ptr, align 8
  %4 = alloca ptr, align 8
  %5 = alloca i64, align 8
  store ptr %0, ptr %3, align 8, !tbaa !36
  store ptr %1, ptr %4, align 8, !tbaa !13
  call void @llvm.lifetime.start.p0(i64 8, ptr %5) #11
  %6 = load ptr, ptr %4, align 8, !tbaa !13
  %7 = call ptr @strchrnul(ptr noundef %6, i32 noundef 58) #12
  %8 = load ptr, ptr %4, align 8, !tbaa !13
  %9 = ptrtoint ptr %7 to i64
  %10 = ptrtoint ptr %8 to i64
  %11 = sub i64 %9, %10
  store i64 %11, ptr %5, align 8, !tbaa !71
  %12 = load ptr, ptr %3, align 8, !tbaa !36
  %13 = call ptr @_(ptr noundef @.str.82)
  %14 = load i64, ptr %5, align 8, !tbaa !71
  %15 = trunc i64 %14 to i32
  %16 = load ptr, ptr %4, align 8, !tbaa !13
  call void (ptr, ptr, ...) @strbuf_addf(ptr noundef %12, ptr noundef %13, i32 noundef %15, ptr noundef %16)
  call void @llvm.lifetime.end.p0(i64 8, ptr %5) #11
  ret i32 -1
}

; Function Attrs: nounwind uwtable
define internal i32 @head_atom_parser(ptr noundef %0, ptr noundef %1, ptr noundef %2, ptr noundef %3) #0 {
  %5 = alloca i32, align 4
  %6 = alloca ptr, align 8
  %7 = alloca ptr, align 8
  %8 = alloca ptr, align 8
  %9 = alloca ptr, align 8
  store ptr %0, ptr %6, align 8, !tbaa !17
  store ptr %1, ptr %7, align 8, !tbaa !26
  store ptr %2, ptr %8, align 8, !tbaa !13
  store ptr %3, ptr %9, align 8, !tbaa !36
  %10 = load ptr, ptr %8, align 8, !tbaa !13
  %11 = icmp ne ptr %10, null
  br i1 %11, label %12, label %15

12:                                               ; preds = %4
  %13 = load ptr, ptr %9, align 8, !tbaa !36
  %14 = call i32 @err_no_arg(ptr noundef %13, ptr noundef @.str.64)
  store i32 %14, ptr %5, align 4
  br label %21

15:                                               ; preds = %4
  %16 = load ptr, ptr @the_repository, align 8, !tbaa !56
  %17 = call ptr @get_main_ref_store(ptr noundef %16)
  %18 = call ptr @refs_resolve_refdup(ptr noundef %17, ptr noundef @.str.64, i32 noundef 1, ptr noundef null, ptr noundef null)
  %19 = load ptr, ptr %7, align 8, !tbaa !26
  %20 = getelementptr inbounds nuw %struct.used_atom, ptr %19, i32 0, i32 4
  store ptr %18, ptr %20, align 8, !tbaa !14
  store i32 0, ptr %5, align 4
  br label %21

21:                                               ; preds = %15, %12
  %22 = load i32, ptr %5, align 4
  ret i32 %22
}