; Function Attrs: nounwind uwtable
define internal range(i32 -1, 1) i32 @head_atom_parser(ptr readnone captures(none) %0, ptr noundef writeonly captures(none) %1, ptr noundef readnone %2, ptr noundef %3) #0 {
  %.not = icmp eq ptr %2, null
  br i1 %.not, label %13, label %5

5:                                                ; preds = %4
  %6 = tail call ptr @strchrnul(ptr noundef nonnull @.str.64, i32 noundef 58) #24
  %7 = load i32, ptr @git_gettext_enabled, align 4, !tbaa !4
  %.not4.i.i = icmp eq i32 %7, 0
  br i1 %.not4.i.i, label %err_no_arg.exit, label %8

8:                                                ; preds = %5
  %9 = tail call ptr @dcgettext(ptr noundef null, ptr noundef nonnull @.str.82, i32 noundef 5) #23
  br label %err_no_arg.exit

err_no_arg.exit:                                  ; preds = %5, %8
  %.0.i.i = phi ptr [ %9, %8 ], [ @.str.82, %5 ]
  %10 = ptrtoint ptr %6 to i64
  %11 = trunc i64 %10 to i32
  %12 = sub i32 %11, ptrtoint (ptr @.str.64 to i32)
  tail call void (ptr, ptr, ...) @strbuf_addf(ptr noundef %3, ptr noundef %.0.i.i, i32 noundef %12, ptr noundef nonnull @.str.64) #23
  br label %18

13:                                               ; preds = %4
  %14 = load ptr, ptr @the_repository, align 8, !tbaa !49
  %15 = tail call ptr @get_main_ref_store(ptr noundef %14) #23
  %16 = tail call ptr @refs_resolve_refdup(ptr noundef %15, ptr noundef nonnull @.str.64, i32 noundef 1, ptr noundef null, ptr noundef null) #23
  %17 = getelementptr inbounds nuw i8, ptr %1, i64 24
  store ptr %16, ptr %17, align 8, !tbaa !15
  br label %18

18:                                               ; preds = %13, %err_no_arg.exit
  %.0 = phi i32 [ -1, %err_no_arg.exit ], [ 0, %13 ]
  ret i32 %.0
}